target datalayout = "e-m:e-p270:32:32-p271:32:32-p272:64:64-i64:64-i128:128-f80:128-n8:16:32:64-S128"
target triple = "x86_64-pc-linux-gnu"

@.str.6 = private unnamed_addr constant [3 x i8] c"rb\00", align 1
@.str.7 = private unnamed_addr constant [3 x i8] c"wb\00", align 1

; Function Attrs: nounwind uwtable
define internal i64 @opj_get_data_length_from_file(ptr noundef %0) #0 {
  %2 = alloca ptr, align 8
  %3 = alloca ptr, align 8
  %4 = alloca i64, align 8
  store ptr %0, ptr %2, align 8, !tbaa !8
  call void @llvm.lifetime.start.p0(i64 8, ptr %3) #5
  %5 = load ptr, ptr %2, align 8, !tbaa !8
  store ptr %5, ptr %3, align 8, !tbaa !78
  call void @llvm.lifetime.start.p0(i64 8, ptr %4) #5
  store i64 0, ptr %4, align 8, !tbaa !94
  %6 = load ptr, ptr %3, align 8, !tbaa !78
  %7 = call i32 @fseek(ptr noundef %6, i64 noundef 0, i32 noundef 2)
  %8 = load ptr, ptr %3, align 8, !tbaa !78
  %9 = call i64 @ftell(ptr noundef %8)
  store i64 %9, ptr %4, align 8, !tbaa !94
  %10 = load ptr, ptr %3, align 8, !tbaa !78
  %11 = call i32 @fseek(ptr noundef %10, i64 noundef 0, i32 noundef 0)
  %12 = load i64, ptr %4, align 8, !tbaa !94
  call void @llvm.lifetime.end.p0(i64 8, ptr %4) #5
  call void @llvm.lifetime.end.p0(i64 8, ptr %3) #5
  ret i64 %12
}

; Function Attrs: nounwind uwtable
define hidden ptr @opj_stream_create_file_stream(ptr noundef %0, i64 noundef %1, i32 noundef %2) #0 {
  %4 = alloca ptr, align 8
  %5 = alloca ptr, align 8
  %6 = alloca i64, align 8
  %7 = alloca i32, align 4
  %8 = alloca ptr, align 8
  %9 = alloca ptr, align 8
  %10 = alloca ptr, align 8
  %11 = alloca i32, align 4
  store ptr %0, ptr %5, align 8, !tbaa !44
  store i64 %1, ptr %6, align 8, !tbaa !94
  store i32 %2, ptr %7, align 4, !tbaa !20
  call void @llvm.lifetime.start.p0(i64 8, ptr %8) #5
  store ptr null, ptr %8, align 8, !tbaa !3
  call void @llvm.lifetime.start.p0(i64 8, ptr %9) #5
  call void @llvm.lifetime.start.p0(i64 8, ptr %10) #5
  %12 = load ptr, ptr %5, align 8, !tbaa !44
  %13 = icmp ne ptr %12, null
  br i1 %13, label %15, label %14

14:                                               ; preds = %3
  store ptr null, ptr %4, align 8
  store i32 1, ptr %11, align 4
  br label %47

15:                                               ; preds = %3
  %16 = load i32, ptr %7, align 4, !tbaa !20
  %17 = icmp ne i32 %16, 0
  br i1 %17, label %18, label %19

18:                                               ; preds = %15
  store ptr @.str.6, ptr %10, align 8, !tbaa !44
  br label %20

19:                                               ; preds = %15
  store ptr @.str.7, ptr %10, align 8, !tbaa !44
  br label %20

20:                                               ; preds = %19, %18
  %21 = load ptr, ptr %5, align 8, !tbaa !44
  %22 = load ptr, ptr %10, align 8, !tbaa !44
  %23 = call noalias ptr @fopen(ptr noundef %21, ptr noundef %22)
  store ptr %23, ptr %9, align 8, !tbaa !78
  %24 = load ptr, ptr %9, align 8, !tbaa !78
  %25 = icmp ne ptr %24, null
  br i1 %25, label %27, label %26

26:                                               ; preds = %20
  store ptr null, ptr %4, align 8
  store i32 1, ptr %11, align 4
  br label %47

27:                                               ; preds = %20
  %28 = load i64, ptr %6, align 8, !tbaa !94
  %29 = load i32, ptr %7, align 4, !tbaa !20
  %30 = call ptr @opj_stream_create(i64 noundef %28, i32 noundef %29)
  store ptr %30, ptr %8, align 8, !tbaa !3
  %31 = load ptr, ptr %8, align 8, !tbaa !3
  %32 = icmp ne ptr %31, null
  br i1 %32, label %36, label %33

33:                                               ; preds = %27
  %34 = load ptr, ptr %9, align 8, !tbaa !78
  %35 = call i32 @fclose(ptr noundef %34)
  store ptr null, ptr %4, align 8
  store i32 1, ptr %11, align 4
  br label %47

36:                                               ; preds = %27
  %37 = load ptr, ptr %8, align 8, !tbaa !3
  %38 = load ptr, ptr %9, align 8, !tbaa !78
  call void @opj_stream_set_user_data(ptr noundef %37, ptr noundef %38, ptr noundef @opj_close_from_file)
  %39 = load ptr, ptr %8, align 8, !tbaa !3
  %40 = load ptr, ptr %9, align 8, !tbaa !78
  %41 = call i64 @opj_get_data_length_from_file(ptr noundef %40)
  call void @opj_stream_set_user_data_length(ptr noundef %39, i64 noundef %41)
  %42 = load ptr, ptr %8, align 8, !tbaa !3
  call void @opj_stream_set_read_function(ptr noundef %42, ptr noundef @opj_read_from_file)
  %43 = load ptr, ptr %8, align 8, !tbaa !3
  call void @opj_stream_set_write_function(ptr noundef %43, ptr noundef @opj_write_from_file)
  %44 = load ptr, ptr %8, align 8, !tbaa !3
  call void @opj_stream_set_skip_function(ptr noundef %44, ptr noundef @opj_skip_from_file)
  %45 = load ptr, ptr %8, align 8, !tbaa !3
  call void @opj_stream_set_seek_function(ptr noundef %45, ptr noundef @opj_seek_from_file)
  %46 = load ptr, ptr %8, align 8, !tbaa !3
  store ptr %46, ptr %4, align 8
  store i32 1, ptr %11, align 4
  br label %47

47:                                               ; preds = %36, %33, %26, %14
  call void @llvm.lifetime.end.p0(i64 8, ptr %10) #5
  call void @llvm.lifetime.end.p0(i64 8, ptr %9) #5
  call void @llvm.lifetime.end.p0(i64 8, ptr %8) #5
  %48 = load ptr, ptr %4, align 8
  ret ptr %48
}