; Function Attrs: nounwind uwtable
define hidden ptr @opj_stream_create_file_stream(ptr noundef readonly %0, i64 noundef %1, i32 noundef %2) local_unnamed_addr #2 {
  %.not = icmp eq ptr %0, null
  br i1 %.not, label %14, label %4

4:                                                ; preds = %3
  %.not22 = icmp eq i32 %2, 0
  %.str.7..str.6 = select i1 %.not22, ptr @.str.7, ptr @.str.6
  %5 = tail call noalias ptr @fopen(ptr noundef nonnull %0, ptr noundef nonnull %.str.7..str.6)
  %.not23 = icmp eq ptr %5, null
  br i1 %.not23, label %14, label %6

6:                                                ; preds = %4
  %7 = tail call ptr @opj_stream_create(i64 noundef %1, i32 noundef %2) #8
  %.not24 = icmp eq ptr %7, null
  br i1 %.not24, label %8, label %10

8:                                                ; preds = %6
  %9 = tail call i32 @fclose(ptr noundef nonnull %5)
  br label %14

10:                                               ; preds = %6
  tail call void @opj_stream_set_user_data(ptr noundef nonnull %7, ptr noundef nonnull %5, ptr noundef nonnull @opj_close_from_file) #8
  %11 = tail call i32 @fseek(ptr noundef nonnull %5, i64 noundef 0, i32 noundef 2)
  %12 = tail call i64 @ftell(ptr noundef nonnull %5)
  %13 = tail call i32 @fseek(ptr noundef nonnull %5, i64 noundef 0, i32 noundef 0)
  tail call void @opj_stream_set_user_data_length(ptr noundef nonnull %7, i64 noundef %12) #8
  tail call void @opj_stream_set_read_function(ptr noundef nonnull %7, ptr noundef nonnull @opj_read_from_file) #8
  tail call void @opj_stream_set_write_function(ptr noundef nonnull %7, ptr noundef nonnull @opj_write_from_file) #8
  tail call void @opj_stream_set_skip_function(ptr noundef nonnull %7, ptr noundef nonnull @opj_skip_from_file) #8
  tail call void @opj_stream_set_seek_function(ptr noundef nonnull %7, ptr noundef nonnull @opj_seek_from_file) #8
  br label %14

14:                                               ; preds = %4, %3, %10, %8
  %.018 = phi ptr [ %7, %10 ], [ null, %8 ], [ null, %3 ], [ null, %4 ]
  ret ptr %.018
}